; Function Attrs: nounwind uwtable
define internal fastcc range(i32 0, 17) i32 @SzReadBoolVector2(ptr noundef nonnull captures(none) %0, i64 noundef range(i64 0, 4294967296) %1, ptr noundef captures(none) %2, ptr noundef %3) unnamed_addr #0 {
  %5 = getelementptr inbounds nuw i8, ptr %0, i64 8
  %6 = load i64, ptr %5, align 8
  %7 = icmp eq i64 %6, 0
  br i1 %7, label %SzReadByte.exit, label %8

8:                                                ; preds = %4
  %9 = add i64 %6, -1
  store i64 %9, ptr %5, align 8
  %10 = load ptr, ptr %0, align 8
  %11 = getelementptr inbounds nuw i8, ptr %10, i64 1
  store ptr %11, ptr %0, align 8
  %12 = load i8, ptr %10, align 1
  %13 = icmp eq i8 %12, 0
  %14 = load ptr, ptr %2, align 8
  %.not.i = icmp eq ptr %14, null
  br i1 %13, label %15, label %37

15:                                               ; preds = %8
  br i1 %.not.i, label %16, label %SzReadByte.exit

16:                                               ; preds = %15
  %17 = icmp eq i64 %1, 0
  br i1 %17, label %SzReadByte.exit.sink.split, label %18

18:                                               ; preds = %16
  %19 = load ptr, ptr %3, align 8
  %20 = tail call ptr %19(ptr noundef nonnull %3, i64 noundef range(i64 0, 4294967296) %1) #11
  store ptr %20, ptr %2, align 8
  %21 = icmp eq ptr %20, null
  br i1 %21, label %SzReadByte.exit, label %.lr.ph.i

.lr.ph.i:                                         ; preds = %18, %30
  %.01831.i = phi i64 [ %36, %30 ], [ 0, %18 ]
  %.01930.i = phi i8 [ %35, %30 ], [ 0, %18 ]
  %.02429.i = phi i8 [ %.125.i, %30 ], [ 0, %18 ]
  %22 = icmp eq i8 %.01930.i, 0
  br i1 %22, label %23, label %30

23:                                               ; preds = %.lr.ph.i
  %24 = load i64, ptr %5, align 8
  %25 = icmp eq i64 %24, 0
  br i1 %25, label %SzReadByte.exit, label %SzReadByte.exit.thread.i

SzReadByte.exit.thread.i:                         ; preds = %23
  %26 = add i64 %24, -1
  store i64 %26, ptr %5, align 8
  %27 = load ptr, ptr %0, align 8
  %28 = getelementptr inbounds nuw i8, ptr %27, i64 1
  store ptr %28, ptr %0, align 8
  %29 = load i8, ptr %27, align 1
  br label %30

30:                                               ; preds = %SzReadByte.exit.thread.i, %.lr.ph.i
  %.125.i = phi i8 [ %.02429.i, %.lr.ph.i ], [ %29, %SzReadByte.exit.thread.i ]
  %.1.i = phi i8 [ %.01930.i, %.lr.ph.i ], [ -128, %SzReadByte.exit.thread.i ]
  %31 = and i8 %.1.i, %.125.i
  %.not23.i = icmp ne i8 %31, 0
  %32 = zext i1 %.not23.i to i8
  %33 = load ptr, ptr %2, align 8
  %34 = getelementptr inbounds nuw i8, ptr %33, i64 %.01831.i
  store i8 %32, ptr %34, align 1
  %35 = lshr i8 %.1.i, 1
  %36 = add nuw nsw i64 %.01831.i, 1
  %exitcond.not.i = icmp eq i64 %36, %1
  br i1 %exitcond.not.i, label %SzReadByte.exit, label %.lr.ph.i

37:                                               ; preds = %8
  br i1 %.not.i, label %38, label %SzReadByte.exit

38:                                               ; preds = %37
  %39 = icmp eq i64 %1, 0
  br i1 %39, label %SzReadByte.exit.sink.split, label %40

40:                                               ; preds = %38
  %41 = load ptr, ptr %3, align 8
  %42 = tail call ptr %41(ptr noundef nonnull %3, i64 noundef %1) #11
  store ptr %42, ptr %2, align 8
  %43 = icmp eq ptr %42, null
  br i1 %43, label %SzReadByte.exit, label %.lr.ph

.lr.ph:                                           ; preds = %40, %.lr.ph
  %.01930 = phi i64 [ %46, %.lr.ph ], [ 0, %40 ]
  %44 = load ptr, ptr %2, align 8
  %45 = getelementptr inbounds nuw i8, ptr %44, i64 %.01930
  store i8 1, ptr %45, align 1
  %46 = add nuw nsw i64 %.01930, 1
  %exitcond.not = icmp eq i64 %46, %1
  br i1 %exitcond.not, label %SzReadByte.exit, label %.lr.ph

SzReadByte.exit.sink.split:                       ; preds = %38, %16
  store ptr null, ptr %2, align 8
  br label %SzReadByte.exit

SzReadByte.exit:                                  ; preds = %.lr.ph, %30, %23, %SzReadByte.exit.sink.split, %18, %15, %4, %40, %37
  %.0 = phi i32 [ 11, %37 ], [ 2, %40 ], [ 16, %4 ], [ 11, %15 ], [ 2, %18 ], [ 0, %SzReadByte.exit.sink.split ], [ 16, %23 ], [ 0, %30 ], [ 0, %.lr.ph ]
  ret i32 %.0
}